target datalayout = "e-m:e-p270:32:32-p271:32:32-p272:64:64-i64:64-i128:128-f80:128-n8:16:32:64-S128"
target triple = "x86_64-pc-linux-gnu"

%struct.ML_KEM_VINFO = type { ptr, i64, i64, i64, i64, i64, i64, i64, i32, i32, i32, i32, i32, i32 }
%struct.ossl_ml_kem_key_st = type { ptr, ptr, ptr, ptr, ptr, ptr, ptr, ptr, ptr, ptr, ptr, ptr, ptr, i32, i32, [64 x i8], ptr }

@.str = private unnamed_addr constant [34 x i8] c"../openssl/crypto/ml_kem/ml_kem.c\00", align 1
@.str.1 = private unnamed_addr constant [9 x i8] c"SHAKE128\00", align 1
@.str.2 = private unnamed_addr constant [9 x i8] c"SHAKE256\00", align 1
@.str.3 = private unnamed_addr constant [9 x i8] c"SHA3-256\00", align 1
@.str.4 = private unnamed_addr constant [9 x i8] c"SHA3-512\00", align 1

; Function Attrs: nounwind uwtable
define ptr @ossl_ml_kem_get_vinfo(i32 noundef %0) #0 {
  %2 = alloca ptr, align 8
  %3 = alloca i32, align 4
  store i32 %0, ptr %3, align 4, !tbaa !23
  %4 = load i32, ptr %3, align 4, !tbaa !23
  switch i32 %4, label %8 [
    i32 1454, label %5
    i32 1455, label %6
    i32 1456, label %7
  ]

5:                                                ; preds = %1
  store ptr @vinfo_map, ptr %2, align 8
  br label %9

6:                                                ; preds = %1
  store ptr getelementptr inbounds ([3 x %struct.ML_KEM_VINFO], ptr @vinfo_map, i64 0, i64 1), ptr %2, align 8
  br label %9

7:                                                ; preds = %1
  store ptr getelementptr inbounds ([3 x %struct.ML_KEM_VINFO], ptr @vinfo_map, i64 0, i64 2), ptr %2, align 8
  br label %9

8:                                                ; preds = %1
  store ptr null, ptr %2, align 8
  br label %9

9:                                                ; preds = %8, %7, %6, %5
  %10 = load ptr, ptr %2, align 8
  ret ptr %10
}

; Function Attrs: nounwind uwtable
define ptr @ossl_ml_kem_key_new(ptr noundef %0, ptr noundef %1, i32 noundef %2) #0 {
  %4 = alloca ptr, align 8
  %5 = alloca ptr, align 8
  %6 = alloca ptr, align 8
  %7 = alloca i32, align 4
  %8 = alloca ptr, align 8
  %9 = alloca ptr, align 8
  %10 = alloca i32, align 4
  store ptr %0, ptr %5, align 8, !tbaa !24
  store ptr %1, ptr %6, align 8, !tbaa !25
  store i32 %2, ptr %7, align 4, !tbaa !23
  call void @llvm.lifetime.start.p0(i64 8, ptr %8) #8
  %11 = load i32, ptr %7, align 4, !tbaa !23
  %12 = call ptr @ossl_ml_kem_get_vinfo(i32 noundef %11)
  store ptr %12, ptr %8, align 8, !tbaa !26
  call void @llvm.lifetime.start.p0(i64 8, ptr %9) #8
  %13 = load ptr, ptr %8, align 8, !tbaa !26
  %14 = icmp eq ptr %13, null
  br i1 %14, label %15, label %16

15:                                               ; preds = %3
  store ptr null, ptr %4, align 8
  store i32 1, ptr %10, align 4
  br label %90

16:                                               ; preds = %3
  %17 = call noalias ptr @CRYPTO_malloc(i64 noundef 184, ptr noundef @.str, i32 noundef 1592)
  store ptr %17, ptr %9, align 8, !tbaa !3
  %18 = icmp eq ptr %17, null
  br i1 %18, label %19, label %20

19:                                               ; preds = %16
  store ptr null, ptr %4, align 8
  store i32 1, ptr %10, align 4
  br label %90

20:                                               ; preds = %16
  %21 = load ptr, ptr %8, align 8, !tbaa !26
  %22 = load ptr, ptr %9, align 8, !tbaa !3
  %23 = getelementptr inbounds nuw %struct.ossl_ml_kem_key_st, ptr %22, i32 0, i32 0
  store ptr %21, ptr %23, align 8, !tbaa !16
  %24 = load ptr, ptr %5, align 8, !tbaa !24
  %25 = load ptr, ptr %9, align 8, !tbaa !3
  %26 = getelementptr inbounds nuw %struct.ossl_ml_kem_key_st, ptr %25, i32 0, i32 1
  store ptr %24, ptr %26, align 8, !tbaa !27
  %27 = load ptr, ptr %9, align 8, !tbaa !3
  %28 = getelementptr inbounds nuw %struct.ossl_ml_kem_key_st, ptr %27, i32 0, i32 13
  store i32 1, ptr %28, align 8, !tbaa !28
  %29 = load ptr, ptr %9, align 8, !tbaa !3
  %30 = getelementptr inbounds nuw %struct.ossl_ml_kem_key_st, ptr %29, i32 0, i32 14
  store i32 1, ptr %30, align 4, !tbaa !29
  %31 = load ptr, ptr %5, align 8, !tbaa !24
  %32 = load ptr, ptr %6, align 8, !tbaa !25
  %33 = call ptr @EVP_MD_fetch(ptr noundef %31, ptr noundef @.str.1, ptr noundef %32)
  %34 = load ptr, ptr %9, align 8, !tbaa !3
  %35 = getelementptr inbounds nuw %struct.ossl_ml_kem_key_st, ptr %34, i32 0, i32 2
  store ptr %33, ptr %35, align 8, !tbaa !30
  %36 = load ptr, ptr %5, align 8, !tbaa !24
  %37 = load ptr, ptr %6, align 8, !tbaa !25
  %38 = call ptr @EVP_MD_fetch(ptr noundef %36, ptr noundef @.str.2, ptr noundef %37)
  %39 = load ptr, ptr %9, align 8, !tbaa !3
  %40 = getelementptr inbounds nuw %struct.ossl_ml_kem_key_st, ptr %39, i32 0, i32 3
  store ptr %38, ptr %40, align 8, !tbaa !31
  %41 = load ptr, ptr %5, align 8, !tbaa !24
  %42 = load ptr, ptr %6, align 8, !tbaa !25
  %43 = call ptr @EVP_MD_fetch(ptr noundef %41, ptr noundef @.str.3, ptr noundef %42)
  %44 = load ptr, ptr %9, align 8, !tbaa !3
  %45 = getelementptr inbounds nuw %struct.ossl_ml_kem_key_st, ptr %44, i32 0, i32 4
  store ptr %43, ptr %45, align 8, !tbaa !32
  %46 = load ptr, ptr %5, align 8, !tbaa !24
  %47 = load ptr, ptr %6, align 8, !tbaa !25
  %48 = call ptr @EVP_MD_fetch(ptr noundef %46, ptr noundef @.str.4, ptr noundef %47)
  %49 = load ptr, ptr %9, align 8, !tbaa !3
  %50 = getelementptr inbounds nuw %struct.ossl_ml_kem_key_st, ptr %49, i32 0, i32 5
  store ptr %48, ptr %50, align 8, !tbaa !33
  %51 = load ptr, ptr %9, align 8, !tbaa !3
  %52 = getelementptr inbounds nuw %struct.ossl_ml_kem_key_st, ptr %51, i32 0, i32 16
  store ptr null, ptr %52, align 8, !tbaa !34
  %53 = load ptr, ptr %9, align 8, !tbaa !3
  %54 = getelementptr inbounds nuw %struct.ossl_ml_kem_key_st, ptr %53, i32 0, i32 7
  store ptr null, ptr %54, align 8, !tbaa !35
  %55 = load ptr, ptr %9, align 8, !tbaa !3
  %56 = getelementptr inbounds nuw %struct.ossl_ml_kem_key_st, ptr %55, i32 0, i32 6
  store ptr null, ptr %56, align 8, !tbaa !36
  %57 = load ptr, ptr %9, align 8, !tbaa !3
  %58 = getelementptr inbounds nuw %struct.ossl_ml_kem_key_st, ptr %57, i32 0, i32 11
  store ptr null, ptr %58, align 8, !tbaa !21
  %59 = load ptr, ptr %9, align 8, !tbaa !3
  %60 = getelementptr inbounds nuw %struct.ossl_ml_kem_key_st, ptr %59, i32 0, i32 12
  store ptr null, ptr %60, align 8, !tbaa !22
  %61 = load ptr, ptr %9, align 8, !tbaa !3
  %62 = getelementptr inbounds nuw %struct.ossl_ml_kem_key_st, ptr %61, i32 0, i32 8
  store ptr null, ptr %62, align 8, !tbaa !8
  %63 = load ptr, ptr %9, align 8, !tbaa !3
  %64 = getelementptr inbounds nuw %struct.ossl_ml_kem_key_st, ptr %63, i32 0, i32 9
  store ptr null, ptr %64, align 8, !tbaa !20
  %65 = load ptr, ptr %9, align 8, !tbaa !3
  %66 = getelementptr inbounds nuw %struct.ossl_ml_kem_key_st, ptr %65, i32 0, i32 10
  store ptr null, ptr %66, align 8, !tbaa !15
  %67 = load ptr, ptr %9, align 8, !tbaa !3
  %68 = getelementptr inbounds nuw %struct.ossl_ml_kem_key_st, ptr %67, i32 0, i32 2
  %69 = load ptr, ptr %68, align 8, !tbaa !30
  %70 = icmp ne ptr %69, null
  br i1 %70, label %71, label %88

71:                                               ; preds = %20
  %72 = load ptr, ptr %9, align 8, !tbaa !3
  %73 = getelementptr inbounds nuw %struct.ossl_ml_kem_key_st, ptr %72, i32 0, i32 3
  %74 = load ptr, ptr %73, align 8, !tbaa !31
  %75 = icmp ne ptr %74, null
  br i1 %75, label %76, label %88

76:                                               ; preds = %71
  %77 = load ptr, ptr %9, align 8, !tbaa !3
  %78 = getelementptr inbounds nuw %struct.ossl_ml_kem_key_st, ptr %77, i32 0, i32 4
  %79 = load ptr, ptr %78, align 8, !tbaa !32
  %80 = icmp ne ptr %79, null
  br i1 %80, label %81, label %88

81:                                               ; preds = %76
  %82 = load ptr, ptr %9, align 8, !tbaa !3
  %83 = getelementptr inbounds nuw %struct.ossl_ml_kem_key_st, ptr %82, i32 0, i32 5
  %84 = load ptr, ptr %83, align 8, !tbaa !33
  %85 = icmp ne ptr %84, null
  br i1 %85, label %86, label %88

86:                                               ; preds = %81
  %87 = load ptr, ptr %9, align 8, !tbaa !3
  store ptr %87, ptr %4, align 8
  store i32 1, ptr %10, align 4
  br label %90

88:                                               ; preds = %81, %76, %71, %20
  %89 = load ptr, ptr %9, align 8, !tbaa !3
  call void @ossl_ml_kem_key_free(ptr noundef %89)
  store ptr null, ptr %4, align 8
  store i32 1, ptr %10, align 4
  br label %90

90:                                               ; preds = %88, %86, %19, %15
  call void @llvm.lifetime.end.p0(i64 8, ptr %9) #8
  call void @llvm.lifetime.end.p0(i64 8, ptr %8) #8
  %91 = load ptr, ptr %4, align 8
  ret ptr %91
}