; Function Attrs: nounwind uwtable
define ptr @ossl_ml_kem_key_new(ptr noundef %0, ptr noundef %1, i32 noundef %2) local_unnamed_addr #0 {
  %switch.tableidx = add i32 %2, -1454
  %4 = icmp ult i32 %switch.tableidx, 3
  br i1 %4, label %switch.lookup, label %ossl_ml_kem_get_vinfo.exit

switch.lookup:                                    ; preds = %3
  %5 = zext nneg i32 %switch.tableidx to i64
  %switch.gep = getelementptr inbounds nuw [3 x ptr], ptr @switch.table.ossl_ml_kem_key_new, i64 0, i64 %5
  %switch.load = load ptr, ptr %switch.gep, align 8
  %6 = tail call noalias ptr @CRYPTO_malloc(i64 noundef 184, ptr noundef nonnull @.str, i32 noundef 1592) #13
  %7 = icmp eq ptr %6, null
  br i1 %7, label %ossl_ml_kem_get_vinfo.exit, label %8

8:                                                ; preds = %switch.lookup
  store ptr %switch.load, ptr %6, align 8, !tbaa !14
  %9 = getelementptr inbounds nuw i8, ptr %6, i64 8
  store ptr %0, ptr %9, align 8, !tbaa !18
  %10 = getelementptr inbounds nuw i8, ptr %6, i64 104
  store i32 1, ptr %10, align 8, !tbaa !19
  %11 = getelementptr inbounds nuw i8, ptr %6, i64 108
  store i32 1, ptr %11, align 4, !tbaa !20
  %12 = tail call ptr @EVP_MD_fetch(ptr noundef %0, ptr noundef nonnull @.str.1, ptr noundef %1) #13
  %13 = getelementptr inbounds nuw i8, ptr %6, i64 16
  store ptr %12, ptr %13, align 8, !tbaa !21
  %14 = tail call ptr @EVP_MD_fetch(ptr noundef %0, ptr noundef nonnull @.str.2, ptr noundef %1) #13
  %15 = getelementptr inbounds nuw i8, ptr %6, i64 24
  store ptr %14, ptr %15, align 8, !tbaa !22
  %16 = tail call ptr @EVP_MD_fetch(ptr noundef %0, ptr noundef nonnull @.str.3, ptr noundef %1) #13
  %17 = getelementptr inbounds nuw i8, ptr %6, i64 32
  store ptr %16, ptr %17, align 8, !tbaa !23
  %18 = tail call ptr @EVP_MD_fetch(ptr noundef %0, ptr noundef nonnull @.str.4, ptr noundef %1) #13
  %19 = getelementptr inbounds nuw i8, ptr %6, i64 40
  store ptr %18, ptr %19, align 8, !tbaa !24
  %20 = getelementptr inbounds nuw i8, ptr %6, i64 176
  store ptr null, ptr %20, align 8, !tbaa !25
  %21 = getelementptr inbounds nuw i8, ptr %6, i64 48
  %.not = icmp eq ptr %12, null
  tail call void @llvm.memset.p0.i64(ptr noundef nonnull align 8 dereferenceable(56) %21, i8 0, i64 56, i1 false)
  %.not36 = icmp eq ptr %14, null
  %or.cond41 = select i1 %.not, i1 true, i1 %.not36
  br i1 %or.cond41, label %23, label %22

22:                                               ; preds = %8
  %.not37 = icmp eq ptr %16, null
  %.not38 = icmp eq ptr %18, null
  %or.cond = select i1 %.not37, i1 true, i1 %.not38
  br i1 %or.cond, label %23, label %ossl_ml_kem_get_vinfo.exit

23:                                               ; preds = %22, %8
  tail call void @ossl_ml_kem_key_free(ptr noundef nonnull %6)
  br label %ossl_ml_kem_get_vinfo.exit

ossl_ml_kem_get_vinfo.exit:                       ; preds = %3, %22, %switch.lookup, %23
  %.0 = phi ptr [ null, %23 ], [ null, %switch.lookup ], [ null, %3 ], [ %6, %22 ]
  ret ptr %.0
}